(dp0
S'locationLongitude'
p1
I1
sS'usageStatsName'
p2
I31
sS'usageEventsName'
p3
I1
sS'locationLatitude'
p4
I1
sS'longitude'
p5
F-71.8094625
sS'tiltZ'
p6
F-0.0
sS'latitude'
p7
F42.2727741
sS'tiltX'
p8
F0.0
sS'tiltY'
p9
F-0.0
sS'wifiLevel'
p10
I-56
s.